target datalayout = "e-m:e-p270:32:32-p271:32:32-p272:64:64-i64:64-i128:128-f80:128-n8:16:32:64-S128"
target triple = "x86_64-pc-linux-gnu"

; Function Attrs: nounwind uwtable
define internal void @DC4_C(ptr noundef %0) #0 {
  %2 = alloca ptr, align 8
  %3 = alloca i32, align 4
  %4 = alloca i32, align 4
  store ptr %0, ptr %2, align 8, !tbaa !16
  call void @llvm.lifetime.start.p0(i64 4, ptr %3) #7
  store i32 4, ptr %3, align 4, !tbaa !9
  call void @llvm.lifetime.start.p0(i64 4, ptr %4) #7
  store i32 0, ptr %4, align 4, !tbaa !9
  br label %5

5:                                                ; preds = %27, %1
  %6 = load i32, ptr %4, align 4, !tbaa !9
  %7 = icmp slt i32 %6, 4
  br i1 %7, label %8, label %30

8:                                                ; preds = %5
  %9 = load ptr, ptr %2, align 8, !tbaa !16
  %10 = load i32, ptr %4, align 4, !tbaa !9
  %11 = sub nsw i32 %10, 32
  %12 = sext i32 %11 to i64
  %13 = getelementptr inbounds i8, ptr %9, i64 %12
  %14 = load i8, ptr %13, align 1, !tbaa !18
  %15 = zext i8 %14 to i32
  %16 = load ptr, ptr %2, align 8, !tbaa !16
  %17 = load i32, ptr %4, align 4, !tbaa !9
  %18 = mul nsw i32 %17, 32
  %19 = add nsw i32 -1, %18
  %20 = sext i32 %19 to i64
  %21 = getelementptr inbounds i8, ptr %16, i64 %20
  %22 = load i8, ptr %21, align 1, !tbaa !18
  %23 = zext i8 %22 to i32
  %24 = add nsw i32 %15, %23
  %25 = load i32, ptr %3, align 4, !tbaa !9
  %26 = add i32 %25, %24
  store i32 %26, ptr %3, align 4, !tbaa !9
  br label %27

27:                                               ; preds = %8
  %28 = load i32, ptr %4, align 4, !tbaa !9
  %29 = add nsw i32 %28, 1
  store i32 %29, ptr %4, align 4, !tbaa !9
  br label %5, !llvm.loop !27

30:                                               ; preds = %5
  %31 = load i32, ptr %3, align 4, !tbaa !9
  %32 = lshr i32 %31, 3
  store i32 %32, ptr %3, align 4, !tbaa !9
  store i32 0, ptr %4, align 4, !tbaa !9
  br label %33

33:                                               ; preds = %44, %30
  %34 = load i32, ptr %4, align 4, !tbaa !9
  %35 = icmp slt i32 %34, 4
  br i1 %35, label %36, label %47

36:                                               ; preds = %33
  %37 = load ptr, ptr %2, align 8, !tbaa !16
  %38 = load i32, ptr %4, align 4, !tbaa !9
  %39 = mul nsw i32 %38, 32
  %40 = sext i32 %39 to i64
  %41 = getelementptr inbounds i8, ptr %37, i64 %40
  %42 = load i32, ptr %3, align 4, !tbaa !9
  %43 = trunc i32 %42 to i8
  call void @llvm.memset.p0.i64(ptr align 1 %41, i8 %43, i64 4, i1 false)
  br label %44

44:                                               ; preds = %36
  %45 = load i32, ptr %4, align 4, !tbaa !9
  %46 = add nsw i32 %45, 1
  store i32 %46, ptr %4, align 4, !tbaa !9
  br label %33, !llvm.loop !28

47:                                               ; preds = %33
  call void @llvm.lifetime.end.p0(i64 4, ptr %4) #7
  call void @llvm.lifetime.end.p0(i64 4, ptr %3) #7
  ret void
}