; Function Attrs: nofree norecurse nosync nounwind memory(argmem: readwrite) uwtable
define internal void @DC4_C(ptr noundef captures(none) %0) #3 {
  %invariant.gep = getelementptr i8, ptr %0, i64 -1
  br label %2

2:                                                ; preds = %1, %2
  %indvars.iv = phi i64 [ 0, %1 ], [ %indvars.iv.next, %2 ]
  %.01213 = phi i32 [ 4, %1 ], [ %11, %2 ]
  %3 = or disjoint i64 %indvars.iv, -32
  %4 = getelementptr inbounds i8, ptr %0, i64 %3
  %5 = load i8, ptr %4, align 1, !tbaa !14
  %6 = zext i8 %5 to i32
  %7 = shl nuw nsw i64 %indvars.iv, 5
  %gep = getelementptr i8, ptr %invariant.gep, i64 %7
  %8 = load i8, ptr %gep, align 1, !tbaa !14
  %9 = zext i8 %8 to i32
  %10 = add i32 %.01213, %6
  %11 = add i32 %10, %9
  %indvars.iv.next = add nuw nsw i64 %indvars.iv, 1
  %exitcond.not = icmp eq i64 %indvars.iv.next, 4
  br i1 %exitcond.not, label %12, label %2, !llvm.loop !25

12:                                               ; preds = %2
  %13 = lshr i32 %11, 3
  %14 = trunc i32 %13 to i8
  br label %15

15:                                               ; preds = %12, %15
  %indvars.iv17 = phi i64 [ 0, %12 ], [ %indvars.iv.next18, %15 ]
  %16 = shl nuw nsw i64 %indvars.iv17, 5
  %17 = getelementptr inbounds nuw i8, ptr %0, i64 %16
  tail call void @llvm.memset.p0.i64(ptr noundef nonnull align 1 dereferenceable(4) %17, i8 %14, i64 4, i1 false)
  %indvars.iv.next18 = add nuw nsw i64 %indvars.iv17, 1
  %exitcond20.not = icmp eq i64 %indvars.iv.next18, 4
  br i1 %exitcond20.not, label %18, label %15, !llvm.loop !26

18:                                               ; preds = %15
  ret void
}